; ModuleID = '10/1007.c'
source_filename = "10/1007.c"
target datalayout = "e-m:e-p270:32:32-p271:32:32-p272:64:64-i64:64-f80:128-n8:16:32:64-S128"
target triple = "x86_64-pc-linux-gnu"

@a = dso_local global [100 x i32] zeroinitializer, align 16
@max = dso_local global [100 x i32] zeroinitializer, align 16
@.str = private unnamed_addr constant [3 x i8] c"%d\00", align 1
@n = common dso_local global i32 0, align 4

; Function Attrs: noinline nounwind uwtable
define dso_local i32 @main() #0 {
  %1 = alloca i32, align 4
  %2 = alloca i32, align 4
  %3 = alloca i32, align 4
  %4 = alloca i32, align 4
  store i32 0, i32* %1, align 4
  %5 = call i32 (i8*, ...) @__isoc99_scanf(i8* getelementptr inbounds ([3 x i8], [3 x i8]* @.str, i64 0, i64 0), i32* @n)
  store i32 1, i32* %2, align 4
  br label %6

6:                                                ; preds = %15, %0
  %7 = load i32, i32* %2, align 4
  %8 = load i32, i32* @n, align 4
  %9 = icmp sle i32 %7, %8
  br i1 %9, label %10, label %18

10:                                               ; preds = %6
  %11 = load i32, i32* %2, align 4
  %12 = sext i32 %11 to i64
  %13 = getelementptr inbounds [100 x i32], [100 x i32]* @a, i64 0, i64 %12
  %14 = call i32 (i8*, ...) @__isoc99_scanf(i8* getelementptr inbounds ([3 x i8], [3 x i8]* @.str, i64 0, i64 0), i32* %13)
  br label %15

15:                                               ; preds = %10
  %16 = load i32, i32* %2, align 4
  %17 = add nsw i32 %16, 1
  store i32 %17, i32* %2, align 4
  br label %6

18:                                               ; preds = %6
  store i32 1, i32* %2, align 4
  br label %19

19:                                               ; preds = %71, %18
  %20 = load i32, i32* %2, align 4
  %21 = load i32, i32* @n, align 4
  %22 = icmp sle i32 %20, %21
  br i1 %22, label %23, label %74

23:                                               ; preds = %19
  %24 = load i32, i32* %2, align 4
  %25 = icmp eq i32 %24, 1
  br i1 %25, label %26, label %30

26:                                               ; preds = %23
  %27 = load i32, i32* %2, align 4
  %28 = sext i32 %27 to i64
  %29 = getelementptr inbounds [100 x i32], [100 x i32]* @max, i64 0, i64 %28
  store i32 1, i32* %29, align 4
  br label %70

30:                                               ; preds = %23
  store i32 1, i32* %3, align 4
  store i32 0, i32* %4, align 4
  br label %31

31:                                               ; preds = %61, %30
  %32 = load i32, i32* %3, align 4
  %33 = load i32, i32* %2, align 4
  %34 = sub nsw i32 %33, 1
  %35 = icmp sle i32 %32, %34
  br i1 %35, label %36, label %64

36:                                               ; preds = %31
  %37 = load i32, i32* %3, align 4
  %38 = sext i32 %37 to i64
  %39 = getelementptr inbounds [100 x i32], [100 x i32]* @a, i64 0, i64 %38
  %40 = load i32, i32* %39, align 4
  %41 = load i32, i32* %2, align 4
  %42 = sext i32 %41 to i64
  %43 = getelementptr inbounds [100 x i32], [100 x i32]* @a, i64 0, i64 %42
  %44 = load i32, i32* %43, align 4
  %45 = icmp slt i32 %40, %44
  br i1 %45, label %46, label %47

46:                                               ; preds = %36
  br label %60

47:                                               ; preds = %36
  %48 = load i32, i32* %4, align 4
  %49 = load i32, i32* %3, align 4
  %50 = sext i32 %49 to i64
  %51 = getelementptr inbounds [100 x i32], [100 x i32]* @max, i64 0, i64 %50
  %52 = load i32, i32* %51, align 4
  %53 = icmp slt i32 %48, %52
  br i1 %53, label %54, label %59

54:                                               ; preds = %47
  %55 = load i32, i32* %3, align 4
  %56 = sext i32 %55 to i64
  %57 = getelementptr inbounds [100 x i32], [100 x i32]* @max, i64 0, i64 %56
  %58 = load i32, i32* %57, align 4
  store i32 %58, i32* %4, align 4
  br label %59

59:                                               ; preds = %54, %47
  br label %60

60:                                               ; preds = %59, %46
  br label %61

61:                                               ; preds = %60
  %62 = load i32, i32* %3, align 4
  %63 = add nsw i32 %62, 1
  store i32 %63, i32* %3, align 4
  br label %31

64:                                               ; preds = %31
  %65 = load i32, i32* %4, align 4
  %66 = add nsw i32 %65, 1
  %67 = load i32, i32* %2, align 4
  %68 = sext i32 %67 to i64
  %69 = getelementptr inbounds [100 x i32], [100 x i32]* @max, i64 0, i64 %68
  store i32 %66, i32* %69, align 4
  br label %70

70:                                               ; preds = %64, %26
  br label %71

71:                                               ; preds = %70
  %72 = load i32, i32* %2, align 4
  %73 = add nsw i32 %72, 1
  store i32 %73, i32* %2, align 4
  br label %19

74:                                               ; preds = %19
  store i32 1, i32* %2, align 4
  %75 = load i32, i32* getelementptr inbounds ([100 x i32], [100 x i32]* @max, i64 0, i64 1), align 4
  store i32 %75, i32* %4, align 4
  br label %76

76:                                               ; preds = %93, %74
  %77 = load i32, i32* %2, align 4
  %78 = load i32, i32* @n, align 4
  %79 = icmp sle i32 %77, %78
  br i1 %79, label %80, label %96

80:                                               ; preds = %76
  %81 = load i32, i32* %4, align 4
  %82 = load i32, i32* %2, align 4
  %83 = sext i32 %82 to i64
  %84 = getelementptr inbounds [100 x i32], [100 x i32]* @max, i64 0, i64 %83
  %85 = load i32, i32* %84, align 4
  %86 = icmp slt i32 %81, %85
  br i1 %86, label %87, label %92

87:                                               ; preds = %80
  %88 = load i32, i32* %2, align 4
  %89 = sext i32 %88 to i64
  %90 = getelementptr inbounds [100 x i32], [100 x i32]* @max, i64 0, i64 %89
  %91 = load i32, i32* %90, align 4
  store i32 %91, i32* %4, align 4
  br label %92

92:                                               ; preds = %87, %80
  br label %93

93:                                               ; preds = %92
  %94 = load i32, i32* %2, align 4
  %95 = add nsw i32 %94, 1
  store i32 %95, i32* %2, align 4
  br label %76

96:                                               ; preds = %76
  %97 = load i32, i32* %4, align 4
  %98 = call i32 (i8*, ...) @printf(i8* getelementptr inbounds ([3 x i8], [3 x i8]* @.str, i64 0, i64 0), i32 %97)
  %99 = load i32, i32* %1, align 4
  ret i32 %99
}

declare dso_local i32 @__isoc99_scanf(i8*, ...) #1

declare dso_local i32 @printf(i8*, ...) #1


!llvm.module.flags = !{!0}
!llvm.ident = !{!1}

!0 = !{i32 1, !"wchar_size", i32 4}
!1 = !{!"clang version 10.0.0-4ubuntu1 "}
